; Function Attrs: mustprogress nofree nosync nounwind willreturn memory(write, argmem: readwrite, inaccessiblemem: none) uwtable
define noundef i32 @_ZN3zmq8dealer_t11xsetsockoptEiPKvm(ptr nocapture noundef nonnull writeonly align 8 dereferenceable(1929) %this, i32 noundef %option_, ptr nocapture noundef readonly %optval_, i64 noundef %optvallen_) unnamed_addr #8 align 2 {
entry:
  %cmp = icmp eq i64 %optvallen_, 4
  br i1 %cmp, label %if.end, label %sw.epilog

if.end:                                           ; preds = %entry
  %value.0.copyload = load i32, ptr %optval_, align 1
  %cond = icmp eq i32 %option_, 51
  %cmp3 = icmp sgt i32 %value.0.copyload, -1
  %or.cond3 = select i1 %cond, i1 %cmp3, i1 false
  br i1 %or.cond3, label %if.then4, label %sw.epilog

if.then4:                                         ; preds = %if.end
  %cmp5 = icmp ne i32 %value.0.copyload, 0
  %_probe_router = getelementptr inbounds i8, ptr %this, i64 1928
  %frombool6 = zext i1 %cmp5 to i8
  store i8 %frombool6, ptr %_probe_router, align 8
  br label %return

sw.epilog:                                        ; preds = %entry, %if.end
  %call = tail call ptr @__errno_location() #12
  store i32 22, ptr %call, align 4
  br label %return

return:                                           ; preds = %sw.epilog, %if.then4
  %retval.0 = phi i32 [ 0, %if.then4 ], [ -1, %sw.epilog ]
  ret i32 %retval.0
}